target datalayout = "e-m:e-p270:32:32-p271:32:32-p272:64:64-i64:64-i128:128-f80:128-n8:16:32:64-S128"
target triple = "x86_64-pc-linux-gnu"

%struct.RBasic = type { i64, i64 }
%struct.__va_list_tag = type { i32, i32, ptr, ptr }

@rb_eArgError = external global i64, align 8
@.str.37 = private unnamed_addr constant [21 x i8] c"duplicate member: %s\00", align 1

; Function Attrs: inlinehint nounwind sspstrong uwtable
define internal void @RBASIC_SET_CLASS_RAW(i64 noundef %0, i64 noundef %1) #1 {
  %3 = alloca i64, align 8
  %4 = alloca i64, align 8
  %5 = alloca ptr, align 8
  store i64 %0, ptr %3, align 8, !tbaa !7
  store i64 %1, ptr %4, align 8, !tbaa !7
  call void @llvm.lifetime.start.p0(i64 8, ptr %5) #26
  %6 = load i64, ptr %3, align 8, !tbaa !7
  %7 = inttoptr i64 %6 to ptr
  %8 = getelementptr inbounds nuw %struct.RBasic, ptr %7, i32 0, i32 1
  store ptr %8, ptr %5, align 8, !tbaa !28
  %9 = load i64, ptr %4, align 8, !tbaa !7
  %10 = load ptr, ptr %5, align 8, !tbaa !28
  store i64 %9, ptr %10, align 8, !tbaa !7
  call void @llvm.lifetime.end.p0(i64 8, ptr %5) #26
  ret void
}

; Function Attrs: inlinehint nounwind sspstrong willreturn memory(none) uwtable
define internal zeroext i1 @RB_TEST(i64 noundef %0) #3 {
  %2 = alloca i64, align 8
  store i64 %0, ptr %2, align 8, !tbaa !7
  %3 = load i64, ptr %2, align 8, !tbaa !7
  %4 = and i64 %3, -5
  %5 = icmp ne i64 %4, 0
  ret i1 %5
}

; Function Attrs: inlinehint nounwind sspstrong uwtable
define internal void @RBASIC_CLEAR_CLASS(i64 noundef %0) #1 {
  %2 = alloca i64, align 8
  store i64 %0, ptr %2, align 8, !tbaa !7
  %3 = load i64, ptr %2, align 8, !tbaa !7
  call void @RBASIC_SET_CLASS_RAW(i64 noundef %3, i64 noundef 0)
  ret void
}

; Function Attrs: nounwind sspstrong uwtable
define internal i64 @struct_make_members_list(ptr noundef %0) #0 {
  %2 = alloca ptr, align 8
  %3 = alloca ptr, align 8
  %4 = alloca i64, align 8
  %5 = alloca i64, align 8
  %6 = alloca i64, align 8
  store ptr %0, ptr %2, align 8, !tbaa !22
  call void @llvm.lifetime.start.p0(i64 8, ptr %3) #26
  call void @llvm.lifetime.start.p0(i64 8, ptr %4) #26
  call void @llvm.lifetime.start.p0(i64 8, ptr %5) #26
  %7 = call i64 @rb_ident_hash_new()
  store i64 %7, ptr %5, align 8, !tbaa !7
  %8 = load i64, ptr %5, align 8, !tbaa !7
  call void @RBASIC_CLEAR_CLASS(i64 noundef %8)
  br label %9

9:                                                ; preds = %45, %1
  %10 = load ptr, ptr %2, align 8, !tbaa !22
  %11 = getelementptr inbounds nuw %struct.__va_list_tag, ptr %10, i32 0, i32 0
  %12 = load i32, ptr %11, align 8
  %13 = icmp ule i32 %12, 40
  br i1 %13, label %14, label %19

14:                                               ; preds = %9
  %15 = getelementptr inbounds nuw %struct.__va_list_tag, ptr %10, i32 0, i32 3
  %16 = load ptr, ptr %15, align 8
  %17 = getelementptr i8, ptr %16, i32 %12
  %18 = add i32 %12, 8
  store i32 %18, ptr %11, align 8
  br label %23

19:                                               ; preds = %9
  %20 = getelementptr inbounds nuw %struct.__va_list_tag, ptr %10, i32 0, i32 2
  %21 = load ptr, ptr %20, align 8
  %22 = getelementptr i8, ptr %21, i32 8
  store ptr %22, ptr %20, align 8
  br label %23

23:                                               ; preds = %19, %14
  %24 = phi ptr [ %17, %14 ], [ %21, %19 ]
  %25 = load ptr, ptr %24, align 8, !tbaa !16
  store ptr %25, ptr %3, align 8, !tbaa !16
  %26 = icmp ne ptr %25, null
  br i1 %26, label %27, label %49

27:                                               ; preds = %23
  call void @llvm.lifetime.start.p0(i64 8, ptr %6) #26
  br i1 false, label %28, label %33

28:                                               ; preds = %27
  %29 = load ptr, ptr %3, align 8, !tbaa !16
  %30 = load ptr, ptr %3, align 8, !tbaa !16
  %31 = call i64 @strlen(ptr noundef %30) #28
  %32 = call i64 @rb_sym_intern_ascii(ptr noundef %29, i64 noundef %31)
  br label %36

33:                                               ; preds = %27
  %34 = load ptr, ptr %3, align 8, !tbaa !16
  %35 = call i64 @rb_sym_intern_ascii_cstr(ptr noundef %34)
  br label %36

36:                                               ; preds = %33, %28
  %37 = phi i64 [ %32, %28 ], [ %35, %33 ]
  store i64 %37, ptr %6, align 8, !tbaa !7
  %38 = load i64, ptr %5, align 8, !tbaa !7
  %39 = load i64, ptr %6, align 8, !tbaa !7
  %40 = call i64 @rb_hash_has_key(i64 noundef %38, i64 noundef %39)
  %41 = call zeroext i1 @RB_TEST(i64 noundef %40) #27
  br i1 %41, label %42, label %45

42:                                               ; preds = %36
  %43 = load i64, ptr @rb_eArgError, align 8, !tbaa !7
  %44 = load ptr, ptr %3, align 8, !tbaa !16
  call void (i64, ptr, ...) @rb_raise(i64 noundef %43, ptr noundef @.str.37, ptr noundef %44) #29
  unreachable

45:                                               ; preds = %36
  %46 = load i64, ptr %5, align 8, !tbaa !7
  %47 = load i64, ptr %6, align 8, !tbaa !7
  %48 = call i64 @rb_hash_aset(i64 noundef %46, i64 noundef %47, i64 noundef 20)
  call void @llvm.lifetime.end.p0(i64 8, ptr %6) #26
  br label %9, !llvm.loop !24

49:                                               ; preds = %23
  %50 = load i64, ptr %5, align 8, !tbaa !7
  %51 = call i64 @rb_hash_keys(i64 noundef %50)
  store i64 %51, ptr %4, align 8, !tbaa !7
  %52 = load i64, ptr %4, align 8, !tbaa !7
  call void @RBASIC_CLEAR_CLASS(i64 noundef %52)
  %53 = load i64, ptr %4, align 8, !tbaa !7
  call void @rb_obj_freeze_inline(i64 noundef %53)
  %54 = load i64, ptr %4, align 8, !tbaa !7
  call void @llvm.lifetime.end.p0(i64 8, ptr %5) #26
  call void @llvm.lifetime.end.p0(i64 8, ptr %4) #26
  call void @llvm.lifetime.end.p0(i64 8, ptr %3) #26
  ret i64 %54
}