; Function Attrs: nounwind sspstrong uwtable
define internal fastcc noundef i64 @struct_make_members_list(ptr noundef nonnull captures(none) %0) unnamed_addr #0 {
  %2 = tail call i64 @rb_ident_hash_new() #19
  %3 = inttoptr i64 %2 to ptr
  %4 = getelementptr inbounds nuw i8, ptr %3, i64 8
  store i64 0, ptr %4, align 8, !tbaa !7
  %5 = getelementptr inbounds nuw i8, ptr %0, i64 8
  %6 = getelementptr inbounds nuw i8, ptr %0, i64 16
  br label %7

7:                                                ; preds = %27, %1
  %8 = load i32, ptr %0, align 8
  %9 = icmp ult i32 %8, 41
  br i1 %9, label %10, label %15

10:                                               ; preds = %7
  %11 = load ptr, ptr %6, align 8
  %12 = zext nneg i32 %8 to i64
  %13 = getelementptr i8, ptr %11, i64 %12
  %14 = add nuw nsw i32 %8, 8
  store i32 %14, ptr %0, align 8
  br label %18

15:                                               ; preds = %7
  %16 = load ptr, ptr %5, align 8
  %17 = getelementptr i8, ptr %16, i64 8
  store ptr %17, ptr %5, align 8
  br label %18

18:                                               ; preds = %15, %10
  %19 = phi ptr [ %13, %10 ], [ %16, %15 ]
  %20 = load ptr, ptr %19, align 8, !tbaa !23
  %.not = icmp eq ptr %20, null
  br i1 %.not, label %29, label %21

21:                                               ; preds = %18
  %22 = tail call i64 @rb_sym_intern_ascii_cstr(ptr noundef nonnull %20) #19
  %23 = tail call i64 @rb_hash_has_key(i64 noundef %2, i64 noundef %22) #19
  %24 = and i64 %23, -5
  %.not12 = icmp eq i64 %24, 0
  br i1 %.not12, label %27, label %25

25:                                               ; preds = %21
  %26 = load i64, ptr @rb_eArgError, align 8, !tbaa !7
  tail call void (i64, ptr, ...) @rb_raise(i64 noundef %26, ptr noundef nonnull @.str.37, ptr noundef nonnull %20) #21
  unreachable

27:                                               ; preds = %21
  %28 = tail call i64 @rb_hash_aset(i64 noundef %2, i64 noundef %22, i64 noundef 20) #19
  br label %7, !llvm.loop !25

29:                                               ; preds = %18
  %30 = tail call i64 @rb_hash_keys(i64 noundef %2) #19
  %31 = inttoptr i64 %30 to ptr
  %32 = getelementptr inbounds nuw i8, ptr %31, i64 8
  store i64 0, ptr %32, align 8, !tbaa !7
  tail call void @rb_obj_freeze_inline(i64 noundef %30) #19
  ret i64 %30
}